target datalayout = "e-m:e-p270:32:32-p271:32:32-p272:64:64-i64:64-i128:128-f80:128-n8:16:32:64-S128"
target triple = "x86_64-pc-linux-gnu"

; Function Attrs: mustprogress uwtable
define dso_local noundef zeroext i1 @_ZN26cmBinUtilsMacOSMachOLinker31ResolveExecutablePathDependencyERKNSt7__cxx1112basic_stringIcSt11char_traitsIcESaIcEEES7_RS5_Rb(ptr noundef nonnull align 8 dereferenceable(80) %0, ptr noundef nonnull align 8 dereferenceable(32) %1, ptr noundef nonnull align 8 dereferenceable(32) %2, ptr noundef nonnull align 8 dereferenceable(32) %3, ptr noundef nonnull align 1 dereferenceable(1) %4) #4 align 2 {
  %6 = alloca i1, align 1
  %7 = alloca ptr, align 8
  %8 = alloca ptr, align 8
  %9 = alloca ptr, align 8
  %10 = alloca ptr, align 8
  %11 = alloca ptr, align 8
  store ptr %0, ptr %7, align 8
  store ptr %1, ptr %8, align 8
  store ptr %2, ptr %9, align 8
  store ptr %3, ptr %10, align 8
  store ptr %4, ptr %11, align 8
  %12 = load ptr, ptr %9, align 8
  %13 = call noundef zeroext i1 @_ZNKSt7__cxx1112basic_stringIcSt11char_traitsIcESaIcEE5emptyEv(ptr noundef nonnull align 8 dereferenceable(32) %12) #3
  br i1 %13, label %14, label %16

14:                                               ; preds = %5
  %15 = load ptr, ptr %11, align 8
  store i8 0, ptr %15, align 1
  store i1 true, ptr %6, align 1
  br label %29

16:                                               ; preds = %5
  %17 = load ptr, ptr %8, align 8
  %18 = load ptr, ptr %10, align 8
  %19 = call noundef nonnull align 8 dereferenceable(32) ptr @_ZNSt7__cxx1112basic_stringIcSt11char_traitsIcESaIcEEaSERKS4_(ptr noundef nonnull align 8 dereferenceable(32) %18, ptr noundef nonnull align 8 dereferenceable(32) %17)
  %20 = load ptr, ptr %10, align 8
  %21 = load ptr, ptr %9, align 8
  %22 = call noundef nonnull align 8 dereferenceable(32) ptr @_ZNSt7__cxx1112basic_stringIcSt11char_traitsIcESaIcEE7replaceEmmRKS4_(ptr noundef nonnull align 8 dereferenceable(32) %20, i64 noundef 0, i64 noundef 16, ptr noundef nonnull align 8 dereferenceable(32) %21)
  %23 = load ptr, ptr %10, align 8
  %24 = call noundef zeroext i1 @_ZN5cmsys11SystemTools10PathExistsERKNSt7__cxx1112basic_stringIcSt11char_traitsIcESaIcEEE(ptr noundef nonnull align 8 dereferenceable(32) %23)
  br i1 %24, label %27, label %25

25:                                               ; preds = %16
  %26 = load ptr, ptr %11, align 8
  store i8 0, ptr %26, align 1
  store i1 true, ptr %6, align 1
  br label %29

27:                                               ; preds = %16
  %28 = load ptr, ptr %11, align 8
  store i8 1, ptr %28, align 1
  store i1 true, ptr %6, align 1
  br label %29

29:                                               ; preds = %27, %25, %14
  %30 = load i1, ptr %6, align 1
  ret i1 %30
}