; Function Attrs: mustprogress uwtable
define dso_local noundef zeroext i1 @_ZN26cmBinUtilsMacOSMachOLinker31ResolveExecutablePathDependencyERKNSt7__cxx1112basic_stringIcSt11char_traitsIcESaIcEEES7_RS5_Rb(ptr nocapture noundef nonnull readnone align 8 dereferenceable(80) %0, ptr noundef nonnull align 8 dereferenceable(32) %1, ptr noundef nonnull align 8 dereferenceable(32) %2, ptr noundef nonnull align 8 dereferenceable(32) %3, ptr nocapture noundef nonnull writeonly align 1 dereferenceable(1) %4) local_unnamed_addr #3 align 2 {
  %6 = tail call noundef zeroext i1 @_ZNKSt7__cxx1112basic_stringIcSt11char_traitsIcESaIcEE5emptyEv(ptr noundef nonnull align 8 dereferenceable(32) %2) #14
  br i1 %6, label %11, label %7

7:                                                ; preds = %5
  %8 = tail call noundef nonnull align 8 dereferenceable(32) ptr @_ZNSt7__cxx1112basic_stringIcSt11char_traitsIcESaIcEEaSERKS4_(ptr noundef nonnull align 8 dereferenceable(32) %3, ptr noundef nonnull align 8 dereferenceable(32) %1)
  %9 = tail call noundef nonnull align 8 dereferenceable(32) ptr @_ZNSt7__cxx1112basic_stringIcSt11char_traitsIcESaIcEE7replaceEmmRKS4_(ptr noundef nonnull align 8 dereferenceable(32) %3, i64 noundef 0, i64 noundef 16, ptr noundef nonnull align 8 dereferenceable(32) %2)
  %10 = tail call noundef zeroext i1 @_ZN5cmsys11SystemTools10PathExistsERKNSt7__cxx1112basic_stringIcSt11char_traitsIcESaIcEEE(ptr noundef nonnull align 8 dereferenceable(32) %3)
  %. = zext i1 %10 to i8
  br label %11

11:                                               ; preds = %7, %5
  %.sink = phi i8 [ 0, %5 ], [ %., %7 ]
  store i8 %.sink, ptr %4, align 1
  ret i1 true
}